target datalayout = "e-m:e-p270:32:32-p271:32:32-p272:64:64-i64:64-i128:128-f80:128-n8:16:32:64-S128"
target triple = "x86_64-pc-linux-gnu"

%struct.CvSeq = type { i32, i32, ptr, ptr, ptr, ptr, i32, i32, ptr, ptr, i32, ptr, ptr, ptr }
%struct.CvSeqBlock = type { ptr, ptr, i32, i32, ptr }

; Function Attrs: mustprogress nounwind uwtable
define ptr @cvGetSeqElem(ptr noundef %0, i32 noundef %1) #4 {
  %3 = alloca ptr, align 8
  %4 = alloca ptr, align 8
  %5 = alloca i32, align 4
  %6 = alloca ptr, align 8
  %7 = alloca i32, align 4
  %8 = alloca i32, align 4
  %9 = alloca i32, align 4
  store ptr %0, ptr %4, align 8, !tbaa !40
  store i32 %1, ptr %5, align 4, !tbaa !3
  call void @llvm.lifetime.start.p0(i64 8, ptr %6) #13
  call void @llvm.lifetime.start.p0(i64 4, ptr %7) #13
  call void @llvm.lifetime.start.p0(i64 4, ptr %8) #13
  %10 = load ptr, ptr %4, align 8, !tbaa !40
  %11 = getelementptr inbounds nuw %struct.CvSeq, ptr %10, i32 0, i32 6
  %12 = load i32, ptr %11, align 8, !tbaa !49
  store i32 %12, ptr %8, align 4, !tbaa !3
  %13 = load i32, ptr %5, align 4, !tbaa !3
  %14 = load i32, ptr %8, align 4, !tbaa !3
  %15 = icmp uge i32 %13, %14
  br i1 %15, label %16, label %41

16:                                               ; preds = %2
  %17 = load i32, ptr %5, align 4, !tbaa !3
  %18 = icmp slt i32 %17, 0
  br i1 %18, label %19, label %21

19:                                               ; preds = %16
  %20 = load i32, ptr %8, align 4, !tbaa !3
  br label %22

21:                                               ; preds = %16
  br label %22

22:                                               ; preds = %21, %19
  %23 = phi i32 [ %20, %19 ], [ 0, %21 ]
  %24 = load i32, ptr %5, align 4, !tbaa !3
  %25 = add nsw i32 %24, %23
  store i32 %25, ptr %5, align 4, !tbaa !3
  %26 = load i32, ptr %5, align 4, !tbaa !3
  %27 = load i32, ptr %8, align 4, !tbaa !3
  %28 = icmp sge i32 %26, %27
  br i1 %28, label %29, label %31

29:                                               ; preds = %22
  %30 = load i32, ptr %8, align 4, !tbaa !3
  br label %32

31:                                               ; preds = %22
  br label %32

32:                                               ; preds = %31, %29
  %33 = phi i32 [ %30, %29 ], [ 0, %31 ]
  %34 = load i32, ptr %5, align 4, !tbaa !3
  %35 = sub nsw i32 %34, %33
  store i32 %35, ptr %5, align 4, !tbaa !3
  %36 = load i32, ptr %5, align 4, !tbaa !3
  %37 = load i32, ptr %8, align 4, !tbaa !3
  %38 = icmp uge i32 %36, %37
  br i1 %38, label %39, label %40

39:                                               ; preds = %32
  store ptr null, ptr %3, align 8
  store i32 1, ptr %9, align 4
  br label %94

40:                                               ; preds = %32
  br label %41

41:                                               ; preds = %40, %2
  %42 = load ptr, ptr %4, align 8, !tbaa !40
  %43 = getelementptr inbounds nuw %struct.CvSeq, ptr %42, i32 0, i32 13
  %44 = load ptr, ptr %43, align 8, !tbaa !50
  store ptr %44, ptr %6, align 8, !tbaa !51
  %45 = load i32, ptr %5, align 4, !tbaa !3
  %46 = load i32, ptr %5, align 4, !tbaa !3
  %47 = add nsw i32 %45, %46
  %48 = load i32, ptr %8, align 4, !tbaa !3
  %49 = icmp sle i32 %47, %48
  br i1 %49, label %50, label %65

50:                                               ; preds = %41
  br label %51

51:                                               ; preds = %57, %50
  %52 = load i32, ptr %5, align 4, !tbaa !3
  %53 = load ptr, ptr %6, align 8, !tbaa !51
  %54 = getelementptr inbounds nuw %struct.CvSeqBlock, ptr %53, i32 0, i32 3
  %55 = load i32, ptr %54, align 4, !tbaa !52
  store i32 %55, ptr %7, align 4, !tbaa !3
  %56 = icmp sge i32 %52, %55
  br i1 %56, label %57, label %64

57:                                               ; preds = %51
  %58 = load ptr, ptr %6, align 8, !tbaa !51
  %59 = getelementptr inbounds nuw %struct.CvSeqBlock, ptr %58, i32 0, i32 1
  %60 = load ptr, ptr %59, align 8, !tbaa !54
  store ptr %60, ptr %6, align 8, !tbaa !51
  %61 = load i32, ptr %7, align 4, !tbaa !3
  %62 = load i32, ptr %5, align 4, !tbaa !3
  %63 = sub nsw i32 %62, %61
  store i32 %63, ptr %5, align 4, !tbaa !3
  br label %51, !llvm.loop !55

64:                                               ; preds = %51
  br label %83

65:                                               ; preds = %41
  br label %66

66:                                               ; preds = %75, %65
  %67 = load ptr, ptr %6, align 8, !tbaa !51
  %68 = getelementptr inbounds nuw %struct.CvSeqBlock, ptr %67, i32 0, i32 0
  %69 = load ptr, ptr %68, align 8, !tbaa !56
  store ptr %69, ptr %6, align 8, !tbaa !51
  %70 = load ptr, ptr %6, align 8, !tbaa !51
  %71 = getelementptr inbounds nuw %struct.CvSeqBlock, ptr %70, i32 0, i32 3
  %72 = load i32, ptr %71, align 4, !tbaa !52
  %73 = load i32, ptr %8, align 4, !tbaa !3
  %74 = sub nsw i32 %73, %72
  store i32 %74, ptr %8, align 4, !tbaa !3
  br label %75

75:                                               ; preds = %66
  %76 = load i32, ptr %5, align 4, !tbaa !3
  %77 = load i32, ptr %8, align 4, !tbaa !3
  %78 = icmp slt i32 %76, %77
  br i1 %78, label %66, label %79, !llvm.loop !57

79:                                               ; preds = %75
  %80 = load i32, ptr %8, align 4, !tbaa !3
  %81 = load i32, ptr %5, align 4, !tbaa !3
  %82 = sub nsw i32 %81, %80
  store i32 %82, ptr %5, align 4, !tbaa !3
  br label %83

83:                                               ; preds = %79, %64
  %84 = load ptr, ptr %6, align 8, !tbaa !51
  %85 = getelementptr inbounds nuw %struct.CvSeqBlock, ptr %84, i32 0, i32 4
  %86 = load ptr, ptr %85, align 8, !tbaa !58
  %87 = load i32, ptr %5, align 4, !tbaa !3
  %88 = load ptr, ptr %4, align 8, !tbaa !40
  %89 = getelementptr inbounds nuw %struct.CvSeq, ptr %88, i32 0, i32 7
  %90 = load i32, ptr %89, align 4, !tbaa !46
  %91 = mul nsw i32 %87, %90
  %92 = sext i32 %91 to i64
  %93 = getelementptr inbounds i8, ptr %86, i64 %92
  store ptr %93, ptr %3, align 8
  store i32 1, ptr %9, align 4
  br label %94

94:                                               ; preds = %83, %39
  call void @llvm.lifetime.end.p0(i64 4, ptr %8) #13
  call void @llvm.lifetime.end.p0(i64 4, ptr %7) #13
  call void @llvm.lifetime.end.p0(i64 8, ptr %6) #13
  %95 = load ptr, ptr %3, align 8
  ret ptr %95
}

; Function Attrs: mustprogress nounwind uwtable
define noundef ptr @_ZN2cv10getSeqElemEPK5CvSeqi(ptr noundef %0, i32 noundef %1) #4 {
  %3 = alloca ptr, align 8
  %4 = alloca i32, align 4
  store ptr %0, ptr %3, align 8, !tbaa !40
  store i32 %1, ptr %4, align 4, !tbaa !3
  %5 = load ptr, ptr %3, align 8, !tbaa !40
  %6 = load i32, ptr %4, align 4, !tbaa !3
  %7 = call ptr @cvGetSeqElem(ptr noundef %5, i32 noundef %6)
  ret ptr %7
}