; Function Attrs: mustprogress nofree norecurse nosync nounwind willreturn memory(read, inaccessiblemem: none) uwtable
define noundef ptr @_ZN2cv10getSeqElemEPK5CvSeqi(ptr noundef readonly captures(none) %0, i32 noundef %1) local_unnamed_addr #5 {
  %3 = getelementptr inbounds nuw i8, ptr %0, i64 40
  %4 = load i32, ptr %3, align 8, !tbaa !42
  %.not.i = icmp ult i32 %1, %4
  br i1 %.not.i, label %11, label %5

5:                                                ; preds = %2
  %6 = icmp slt i32 %1, 0
  %7 = select i1 %6, i32 %4, i32 0
  %8 = add nsw i32 %7, %1
  %.not43.i = icmp slt i32 %8, %4
  %9 = select i1 %.not43.i, i32 0, i32 %4
  %10 = sub nsw i32 %8, %9
  %.not44.i = icmp ult i32 %10, %4
  br i1 %.not44.i, label %11, label %cvGetSeqElem.exit

11:                                               ; preds = %5, %2
  %.033.i = phi i32 [ %10, %5 ], [ %1, %2 ]
  %12 = getelementptr inbounds nuw i8, ptr %0, i64 88
  %13 = load ptr, ptr %12, align 8, !tbaa !43
  %14 = shl nsw i32 %.033.i, 1
  %.not45.i = icmp sgt i32 %14, %4
  br i1 %.not45.i, label %.preheader.i, label %.preheader47.i

.preheader47.i:                                   ; preds = %11
  %15 = getelementptr inbounds nuw i8, ptr %13, i64 20
  %16 = load i32, ptr %15, align 4, !tbaa !44
  %.not4649.i = icmp slt i32 %.033.i, %16
  br i1 %.not4649.i, label %.loopexit.i, label %.lr.ph.i

.lr.ph.i:                                         ; preds = %.preheader47.i, %.lr.ph.i
  %17 = phi i32 [ %22, %.lr.ph.i ], [ %16, %.preheader47.i ]
  %.03251.i = phi ptr [ %19, %.lr.ph.i ], [ %13, %.preheader47.i ]
  %.13450.i = phi i32 [ %20, %.lr.ph.i ], [ %.033.i, %.preheader47.i ]
  %18 = getelementptr inbounds nuw i8, ptr %.03251.i, i64 8
  %19 = load ptr, ptr %18, align 8, !tbaa !46
  %20 = sub nsw i32 %.13450.i, %17
  %21 = getelementptr inbounds nuw i8, ptr %19, i64 20
  %22 = load i32, ptr %21, align 4, !tbaa !44
  %.not46.i = icmp slt i32 %20, %22
  br i1 %.not46.i, label %.loopexit.i, label %.lr.ph.i, !llvm.loop !47

.preheader.i:                                     ; preds = %11, %.preheader.i
  %.2.i = phi ptr [ %23, %.preheader.i ], [ %13, %11 ]
  %.0.i = phi i32 [ %26, %.preheader.i ], [ %4, %11 ]
  %23 = load ptr, ptr %.2.i, align 8, !tbaa !48
  %24 = getelementptr inbounds nuw i8, ptr %23, i64 20
  %25 = load i32, ptr %24, align 4, !tbaa !44
  %26 = sub nsw i32 %.0.i, %25
  %27 = icmp slt i32 %.033.i, %26
  br i1 %27, label %.preheader.i, label %28, !llvm.loop !49

28:                                               ; preds = %.preheader.i
  %29 = sub nsw i32 %.033.i, %26
  br label %.loopexit.i

.loopexit.i:                                      ; preds = %.lr.ph.i, %28, %.preheader47.i
  %.235.i = phi i32 [ %29, %28 ], [ %.033.i, %.preheader47.i ], [ %20, %.lr.ph.i ]
  %.1.i = phi ptr [ %23, %28 ], [ %13, %.preheader47.i ], [ %19, %.lr.ph.i ]
  %30 = getelementptr inbounds nuw i8, ptr %.1.i, i64 24
  %31 = load ptr, ptr %30, align 8, !tbaa !50
  %32 = getelementptr inbounds nuw i8, ptr %0, i64 44
  %33 = load i32, ptr %32, align 4, !tbaa !39
  %34 = mul nsw i32 %33, %.235.i
  %35 = sext i32 %34 to i64
  %36 = getelementptr inbounds i8, ptr %31, i64 %35
  br label %cvGetSeqElem.exit

cvGetSeqElem.exit:                                ; preds = %5, %.loopexit.i
  %.031.i = phi ptr [ %36, %.loopexit.i ], [ null, %5 ]
  ret ptr %.031.i
}